target datalayout = "e-m:e-p270:32:32-p271:32:32-p272:64:64-i64:64-i128:128-f80:128-n8:16:32:64-S128"
target triple = "x86_64-pc-linux-gnu"

%"class.std::vector.0" = type { %"struct.std::_Vector_base.1" }
%"struct.std::_Vector_base.1" = type { %"struct.std::_Vector_base<float, std::allocator<float>>::_Vector_impl" }
%"struct.std::_Vector_base<float, std::allocator<float>>::_Vector_impl" = type { %"struct.std::_Vector_base<float, std::allocator<float>>::_Vector_impl_data" }
%"struct.std::_Vector_base<float, std::allocator<float>>::_Vector_impl_data" = type { ptr, ptr, ptr }
%"struct.faiss::AdditiveQuantizer" = type <{ %"struct.faiss::Quantizer", i64, %"class.std::vector", %"class.std::vector.0", %"class.std::vector", i64, i64, i64, i8, i8, i8, [5 x i8], %"class.std::vector.0", %"struct.faiss::IndexFlat1D", %"class.std::vector.0", %"class.std::vector.0", i64, i32, float, float, [4 x i8] }>
%"struct.faiss::Quantizer" = type { ptr, i64, i64 }
%"class.std::vector" = type { %"struct.std::_Vector_base" }
%"struct.std::_Vector_base" = type { %"struct.std::_Vector_base<unsigned long, std::allocator<unsigned long>>::_Vector_impl" }
%"struct.std::_Vector_base<unsigned long, std::allocator<unsigned long>>::_Vector_impl" = type { %"struct.std::_Vector_base<unsigned long, std::allocator<unsigned long>>::_Vector_impl_data" }
%"struct.std::_Vector_base<unsigned long, std::allocator<unsigned long>>::_Vector_impl_data" = type { ptr, ptr, ptr }
%"struct.faiss::IndexFlat1D" = type { %"struct.faiss::IndexFlatL2", i8, %"class.std::vector.10" }
%"struct.faiss::IndexFlatL2" = type { %"struct.faiss::IndexFlat", %"class.std::vector.0" }
%"struct.faiss::IndexFlat" = type { %"struct.faiss::IndexFlatCodes" }
%"struct.faiss::IndexFlatCodes" = type { %"struct.faiss::Index.base", i64, %"class.std::vector.5" }
%"struct.faiss::Index.base" = type <{ ptr, i32, [4 x i8], i64, i8, i8, [2 x i8], i32, float }>
%"class.std::vector.5" = type { %"struct.std::_Vector_base.6" }
%"struct.std::_Vector_base.6" = type { %"struct.std::_Vector_base<unsigned char, std::allocator<unsigned char>>::_Vector_impl" }
%"struct.std::_Vector_base<unsigned char, std::allocator<unsigned char>>::_Vector_impl" = type { %"struct.std::_Vector_base<unsigned char, std::allocator<unsigned char>>::_Vector_impl_data" }
%"struct.std::_Vector_base<unsigned char, std::allocator<unsigned char>>::_Vector_impl_data" = type { ptr, ptr, ptr }
%"class.std::vector.10" = type { %"struct.std::_Vector_base.11" }
%"struct.std::_Vector_base.11" = type { %"struct.std::_Vector_base<long, std::allocator<long>>::_Vector_impl" }
%"struct.std::_Vector_base<long, std::allocator<long>>::_Vector_impl" = type { %"struct.std::_Vector_base<long, std::allocator<long>>::_Vector_impl_data" }
%"struct.std::_Vector_base<long, std::allocator<long>>::_Vector_impl_data" = type { ptr, ptr, ptr }
%"struct.faiss::ProductAdditiveQuantizer" = type { %"struct.faiss::AdditiveQuantizer.base", i64, %"class.std::vector.15" }
%"struct.faiss::AdditiveQuantizer.base" = type <{ %"struct.faiss::Quantizer", i64, %"class.std::vector", %"class.std::vector.0", %"class.std::vector", i64, i64, i64, i8, i8, i8, [5 x i8], %"class.std::vector.0", %"struct.faiss::IndexFlat1D", %"class.std::vector.0", %"class.std::vector.0", i64, i32, float, float }>
%"class.std::vector.15" = type { %"struct.std::_Vector_base.16" }
%"struct.std::_Vector_base.16" = type { %"struct.std::_Vector_base<faiss::AdditiveQuantizer *, std::allocator<faiss::AdditiveQuantizer *>>::_Vector_impl" }
%"struct.std::_Vector_base<faiss::AdditiveQuantizer *, std::allocator<faiss::AdditiveQuantizer *>>::_Vector_impl" = type { %"struct.std::_Vector_base<faiss::AdditiveQuantizer *, std::allocator<faiss::AdditiveQuantizer *>>::_Vector_impl_data" }
%"struct.std::_Vector_base<faiss::AdditiveQuantizer *, std::allocator<faiss::AdditiveQuantizer *>>::_Vector_impl_data" = type { ptr, ptr, ptr }

@.str.10 = private unnamed_addr constant [11 x i8] c"Transposed\00", align 1
@.str.11 = private unnamed_addr constant [15 x i8] c"Not transposed\00", align 1

; Function Attrs: mustprogress nounwind uwtable
define linkonce_odr noundef ptr @_ZNKSt6vectorIfSaIfEE11_M_data_ptrIfEEPT_S4_(ptr noundef nonnull align 8 dereferenceable(24) %0, ptr noundef %1) #1 comdat align 2 {
  %3 = alloca ptr, align 8
  %4 = alloca ptr, align 8
  store ptr %0, ptr %3, align 8, !tbaa !142
  store ptr %1, ptr %4, align 8, !tbaa !11
  %5 = load ptr, ptr %4, align 8, !tbaa !11
  ret ptr %5
}

; Function Attrs: mustprogress nounwind uwtable
define linkonce_odr noundef ptr @_ZNKSt6vectorIfSaIfEE4dataEv(ptr noundef nonnull align 8 dereferenceable(24) %0) #1 comdat align 2 {
  %2 = alloca ptr, align 8
  store ptr %0, ptr %2, align 8, !tbaa !142
  %3 = load ptr, ptr %2, align 8
  %4 = getelementptr inbounds nuw %"struct.std::_Vector_base.1", ptr %3, i32 0, i32 0
  %5 = getelementptr inbounds nuw %"struct.std::_Vector_base<float, std::allocator<float>>::_Vector_impl_data", ptr %4, i32 0, i32 0
  %6 = load ptr, ptr %5, align 8, !tbaa !144
  %7 = call noundef ptr @_ZNKSt6vectorIfSaIfEE11_M_data_ptrIfEEPT_S4_(ptr noundef nonnull align 8 dereferenceable(24) %3, ptr noundef %6) #18
  ret ptr %7
}

; Function Attrs: mustprogress nounwind uwtable
define linkonce_odr noundef nonnull align 8 dereferenceable(8) ptr @_ZNKSt6vectorIPN5faiss17AdditiveQuantizerESaIS2_EEixEm(ptr noundef nonnull align 8 dereferenceable(24) %0, i64 noundef %1) #1 comdat align 2 {
  %3 = alloca ptr, align 8
  %4 = alloca i64, align 8
  store ptr %0, ptr %3, align 8, !tbaa !61
  store i64 %1, ptr %4, align 8, !tbaa !9
  %5 = load ptr, ptr %3, align 8
  %6 = getelementptr inbounds nuw %"struct.std::_Vector_base.16", ptr %5, i32 0, i32 0
  %7 = getelementptr inbounds nuw %"struct.std::_Vector_base<faiss::AdditiveQuantizer *, std::allocator<faiss::AdditiveQuantizer *>>::_Vector_impl_data", ptr %6, i32 0, i32 0
  %8 = load ptr, ptr %7, align 8, !tbaa !74
  %9 = load i64, ptr %4, align 8, !tbaa !9
  %10 = getelementptr inbounds nuw ptr, ptr %8, i64 %9
  ret ptr %10
}

; Function Attrs: mustprogress uwtable
define void @_ZNK5faiss24ProductAdditiveQuantizer11compute_LUTEmPKfPffl(ptr noundef nonnull align 8 dereferenceable(392) %0, i64 noundef %1, ptr noundef %2, ptr noundef %3, float noundef %4, i64 noundef %5) unnamed_addr #0 align 2 {
  %7 = alloca ptr, align 8
  %8 = alloca i64, align 8
  %9 = alloca ptr, align 8
  %10 = alloca ptr, align 8
  %11 = alloca float, align 4
  %12 = alloca i64, align 8
  %13 = alloca i32, align 4
  %14 = alloca i32, align 4
  %15 = alloca i32, align 4
  %16 = alloca float, align 4
  %17 = alloca i64, align 8
  %18 = alloca i64, align 8
  %19 = alloca i64, align 8
  %20 = alloca i64, align 8
  %21 = alloca ptr, align 8
  %22 = alloca i32, align 4
  %23 = alloca i32, align 4
  %24 = alloca ptr, align 8
  %25 = alloca ptr, align 8
  %26 = alloca ptr, align 8
  store ptr %0, ptr %7, align 8, !tbaa !4
  store i64 %1, ptr %8, align 8, !tbaa !9
  store ptr %2, ptr %9, align 8, !tbaa !11
  store ptr %3, ptr %10, align 8, !tbaa !11
  store float %4, ptr %11, align 4, !tbaa !70
  store i64 %5, ptr %12, align 8, !tbaa !9
  %27 = load ptr, ptr %7, align 8
  call void @llvm.lifetime.start.p0(i64 4, ptr %13) #18
  %28 = load i64, ptr %8, align 8, !tbaa !9
  %29 = trunc i64 %28 to i32
  store i32 %29, ptr %13, align 4, !tbaa !56
  call void @llvm.lifetime.start.p0(i64 4, ptr %14) #18
  %30 = load i64, ptr %12, align 8, !tbaa !9
  %31 = icmp sgt i64 %30, 0
  br i1 %31, label %32, label %34

32:                                               ; preds = %6
  %33 = load i64, ptr %12, align 8, !tbaa !9
  br label %37

34:                                               ; preds = %6
  %35 = getelementptr inbounds nuw %"struct.faiss::AdditiveQuantizer", ptr %27, i32 0, i32 7
  %36 = load i64, ptr %35, align 8, !tbaa !64
  br label %37

37:                                               ; preds = %34, %32
  %38 = phi i64 [ %33, %32 ], [ %36, %34 ]
  %39 = trunc i64 %38 to i32
  store i32 %39, ptr %14, align 4, !tbaa !56
  call void @llvm.lifetime.start.p0(i64 4, ptr %15) #18
  %40 = getelementptr inbounds nuw %"struct.faiss::Quantizer", ptr %27, i32 0, i32 1
  %41 = load i64, ptr %40, align 8, !tbaa !55
  %42 = trunc i64 %41 to i32
  store i32 %42, ptr %15, align 4, !tbaa !56
  call void @llvm.lifetime.start.p0(i64 4, ptr %16) #18
  store float 0.000000e+00, ptr %16, align 4, !tbaa !70
  call void @llvm.lifetime.start.p0(i64 8, ptr %17) #18
  store i64 0, ptr %17, align 8, !tbaa !9
  call void @llvm.lifetime.start.p0(i64 8, ptr %18) #18
  store i64 0, ptr %18, align 8, !tbaa !9
  call void @llvm.lifetime.start.p0(i64 8, ptr %19) #18
  store i64 0, ptr %19, align 8, !tbaa !9
  call void @llvm.lifetime.start.p0(i64 8, ptr %20) #18
  store i64 0, ptr %20, align 8, !tbaa !9
  br label %43

43:                                               ; preds = %95, %37
  %44 = load i64, ptr %20, align 8, !tbaa !9
  %45 = getelementptr inbounds nuw %"struct.faiss::ProductAdditiveQuantizer", ptr %27, i32 0, i32 1
  %46 = load i64, ptr %45, align 8, !tbaa !46
  %47 = icmp ult i64 %44, %46
  br i1 %47, label %49, label %48

48:                                               ; preds = %43
  call void @llvm.lifetime.end.p0(i64 8, ptr %20) #18
  br label %98

49:                                               ; preds = %43
  call void @llvm.lifetime.start.p0(i64 8, ptr %21) #18
  %50 = getelementptr inbounds nuw %"struct.faiss::ProductAdditiveQuantizer", ptr %27, i32 0, i32 2
  %51 = load i64, ptr %20, align 8, !tbaa !9
  %52 = call noundef nonnull align 8 dereferenceable(8) ptr @_ZNKSt6vectorIPN5faiss17AdditiveQuantizerESaIS2_EEixEm(ptr noundef nonnull align 8 dereferenceable(24) %50, i64 noundef %51) #18
  %53 = load ptr, ptr %52, align 8, !tbaa !53
  store ptr %53, ptr %21, align 8, !tbaa !53
  call void @llvm.lifetime.start.p0(i64 4, ptr %22) #18
  %54 = load ptr, ptr %21, align 8, !tbaa !53
  %55 = getelementptr inbounds nuw %"struct.faiss::AdditiveQuantizer", ptr %54, i32 0, i32 7
  %56 = load i64, ptr %55, align 8, !tbaa !64
  %57 = trunc i64 %56 to i32
  store i32 %57, ptr %22, align 4, !tbaa !56
  call void @llvm.lifetime.start.p0(i64 4, ptr %23) #18
  %58 = load ptr, ptr %21, align 8, !tbaa !53
  %59 = getelementptr inbounds nuw %"struct.faiss::Quantizer", ptr %58, i32 0, i32 1
  %60 = load i64, ptr %59, align 8, !tbaa !55
  %61 = trunc i64 %60 to i32
  store i32 %61, ptr %23, align 4, !tbaa !56
  call void @llvm.lifetime.start.p0(i64 8, ptr %24) #18
  %62 = getelementptr inbounds nuw %"struct.faiss::AdditiveQuantizer", ptr %27, i32 0, i32 3
  %63 = call noundef ptr @_ZNKSt6vectorIfSaIfEE4dataEv(ptr noundef nonnull align 8 dereferenceable(24) %62) #18
  %64 = load i64, ptr %18, align 8, !tbaa !9
  %65 = getelementptr inbounds nuw float, ptr %63, i64 %64
  store ptr %65, ptr %24, align 8, !tbaa !11
  call void @llvm.lifetime.start.p0(i64 8, ptr %25) #18
  %66 = load ptr, ptr %9, align 8, !tbaa !11
  %67 = load i64, ptr %17, align 8, !tbaa !9
  %68 = getelementptr inbounds nuw float, ptr %66, i64 %67
  store ptr %68, ptr %25, align 8, !tbaa !11
  call void @llvm.lifetime.start.p0(i64 8, ptr %26) #18
  %69 = load ptr, ptr %10, align 8, !tbaa !11
  %70 = load i64, ptr %19, align 8, !tbaa !9
  %71 = getelementptr inbounds nuw float, ptr %69, i64 %70
  store ptr %71, ptr %26, align 8, !tbaa !11
  %72 = load ptr, ptr %24, align 8, !tbaa !11
  %73 = load ptr, ptr %25, align 8, !tbaa !11
  %74 = load ptr, ptr %26, align 8, !tbaa !11
  %75 = call i32 @sgemm_(ptr noundef @.str.10, ptr noundef @.str.11, ptr noundef %22, ptr noundef %13, ptr noundef %23, ptr noundef %11, ptr noundef %72, ptr noundef %23, ptr noundef %73, ptr noundef %15, ptr noundef %16, ptr noundef %74, ptr noundef %14)
  %76 = load ptr, ptr %21, align 8, !tbaa !53
  %77 = getelementptr inbounds nuw %"struct.faiss::Quantizer", ptr %76, i32 0, i32 1
  %78 = load i64, ptr %77, align 8, !tbaa !55
  %79 = load i64, ptr %17, align 8, !tbaa !9
  %80 = add i64 %79, %78
  store i64 %80, ptr %17, align 8, !tbaa !9
  %81 = load ptr, ptr %21, align 8, !tbaa !53
  %82 = getelementptr inbounds nuw %"struct.faiss::AdditiveQuantizer", ptr %81, i32 0, i32 7
  %83 = load i64, ptr %82, align 8, !tbaa !64
  %84 = load ptr, ptr %21, align 8, !tbaa !53
  %85 = getelementptr inbounds nuw %"struct.faiss::Quantizer", ptr %84, i32 0, i32 1
  %86 = load i64, ptr %85, align 8, !tbaa !55
  %87 = mul i64 %83, %86
  %88 = load i64, ptr %18, align 8, !tbaa !9
  %89 = add i64 %88, %87
  store i64 %89, ptr %18, align 8, !tbaa !9
  %90 = load ptr, ptr %21, align 8, !tbaa !53
  %91 = getelementptr inbounds nuw %"struct.faiss::AdditiveQuantizer", ptr %90, i32 0, i32 7
  %92 = load i64, ptr %91, align 8, !tbaa !64
  %93 = load i64, ptr %19, align 8, !tbaa !9
  %94 = add i64 %93, %92
  store i64 %94, ptr %19, align 8, !tbaa !9
  call void @llvm.lifetime.end.p0(i64 8, ptr %26) #18
  call void @llvm.lifetime.end.p0(i64 8, ptr %25) #18
  call void @llvm.lifetime.end.p0(i64 8, ptr %24) #18
  call void @llvm.lifetime.end.p0(i64 4, ptr %23) #18
  call void @llvm.lifetime.end.p0(i64 4, ptr %22) #18
  call void @llvm.lifetime.end.p0(i64 8, ptr %21) #18
  br label %95

95:                                               ; preds = %49
  %96 = load i64, ptr %20, align 8, !tbaa !9
  %97 = add i64 %96, 1
  store i64 %97, ptr %20, align 8, !tbaa !9
  br label %43, !llvm.loop !71

98:                                               ; preds = %48
  call void @llvm.lifetime.end.p0(i64 8, ptr %19) #18
  call void @llvm.lifetime.end.p0(i64 8, ptr %18) #18
  call void @llvm.lifetime.end.p0(i64 8, ptr %17) #18
  call void @llvm.lifetime.end.p0(i64 4, ptr %16) #18
  call void @llvm.lifetime.end.p0(i64 4, ptr %15) #18
  call void @llvm.lifetime.end.p0(i64 4, ptr %14) #18
  call void @llvm.lifetime.end.p0(i64 4, ptr %13) #18
  ret void
}