; Function Attrs: mustprogress uwtable
define void @_ZNK5faiss24ProductAdditiveQuantizer11compute_LUTEmPKfPffl(ptr noundef nonnull readonly align 8 captures(none) dereferenceable(392) %0, i64 noundef %1, ptr noundef %2, ptr noundef %3, float noundef %4, i64 noundef %5) unnamed_addr #0 align 2 {
  %7 = alloca float, align 4
  %8 = alloca i32, align 4
  %9 = alloca i32, align 4
  %10 = alloca i32, align 4
  %11 = alloca float, align 4
  %12 = alloca i32, align 4
  %13 = alloca i32, align 4
  store float %4, ptr %7, align 4, !tbaa !59
  call void @llvm.lifetime.start.p0(i64 4, ptr nonnull %8) #18
  %14 = trunc i64 %1 to i32
  store i32 %14, ptr %8, align 4, !tbaa !60
  call void @llvm.lifetime.start.p0(i64 4, ptr nonnull %9) #18
  %15 = icmp sgt i64 %5, 0
  %16 = getelementptr inbounds nuw i8, ptr %0, i64 120
  %17 = load i64, ptr %16, align 8
  %18 = select i1 %15, i64 %5, i64 %17
  %19 = trunc i64 %18 to i32
  store i32 %19, ptr %9, align 4, !tbaa !60
  call void @llvm.lifetime.start.p0(i64 4, ptr nonnull %10) #18
  %20 = getelementptr inbounds nuw i8, ptr %0, i64 8
  %21 = load i64, ptr %20, align 8, !tbaa !57
  %22 = trunc i64 %21 to i32
  store i32 %22, ptr %10, align 4, !tbaa !60
  call void @llvm.lifetime.start.p0(i64 4, ptr nonnull %11) #18
  store float 0.000000e+00, ptr %11, align 4, !tbaa !59
  %23 = getelementptr inbounds nuw i8, ptr %0, i64 360
  %24 = load i64, ptr %23, align 8, !tbaa !44
  %.not = icmp eq i64 %24, 0
  br i1 %.not, label %._crit_edge, label %.lr.ph

.lr.ph:                                           ; preds = %6
  %25 = getelementptr inbounds nuw i8, ptr %0, i64 368
  %26 = getelementptr inbounds nuw i8, ptr %0, i64 56
  br label %27

._crit_edge:                                      ; preds = %27, %6
  call void @llvm.lifetime.end.p0(i64 4, ptr nonnull %11) #18
  call void @llvm.lifetime.end.p0(i64 4, ptr nonnull %10) #18
  call void @llvm.lifetime.end.p0(i64 4, ptr nonnull %9) #18
  call void @llvm.lifetime.end.p0(i64 4, ptr nonnull %8) #18
  ret void

27:                                               ; preds = %.lr.ph, %27
  %.030 = phi i64 [ 0, %.lr.ph ], [ %43, %27 ]
  %.02329 = phi i64 [ 0, %.lr.ph ], [ %46, %27 ]
  %.02428 = phi i64 [ 0, %.lr.ph ], [ %47, %27 ]
  %.02527 = phi i64 [ 0, %.lr.ph ], [ %48, %27 ]
  %28 = load ptr, ptr %25, align 8, !tbaa !54
  %29 = getelementptr inbounds nuw ptr, ptr %28, i64 %.02527
  %30 = load ptr, ptr %29, align 8, !tbaa !55
  call void @llvm.lifetime.start.p0(i64 4, ptr nonnull %12) #18
  %31 = getelementptr inbounds nuw i8, ptr %30, i64 120
  %32 = load i64, ptr %31, align 8, !tbaa !65
  %33 = trunc i64 %32 to i32
  store i32 %33, ptr %12, align 4, !tbaa !60
  call void @llvm.lifetime.start.p0(i64 4, ptr nonnull %13) #18
  %34 = getelementptr inbounds nuw i8, ptr %30, i64 8
  %35 = load i64, ptr %34, align 8, !tbaa !57
  %36 = trunc i64 %35 to i32
  store i32 %36, ptr %13, align 4, !tbaa !60
  %37 = load ptr, ptr %26, align 8, !tbaa !53
  %38 = getelementptr inbounds nuw float, ptr %37, i64 %.02329
  %39 = getelementptr inbounds nuw float, ptr %2, i64 %.030
  %40 = getelementptr inbounds nuw float, ptr %3, i64 %.02428
  %41 = call i32 @sgemm_(ptr noundef nonnull @.str.10, ptr noundef nonnull @.str.11, ptr noundef nonnull %12, ptr noundef nonnull %8, ptr noundef nonnull %13, ptr noundef nonnull %7, ptr noundef %38, ptr noundef nonnull %13, ptr noundef %39, ptr noundef nonnull %10, ptr noundef nonnull %11, ptr noundef %40, ptr noundef nonnull %9)
  %42 = load i64, ptr %34, align 8, !tbaa !57
  %43 = add i64 %42, %.030
  %44 = load i64, ptr %31, align 8, !tbaa !65
  %45 = mul i64 %44, %42
  %46 = add i64 %45, %.02329
  %47 = add i64 %44, %.02428
  call void @llvm.lifetime.end.p0(i64 4, ptr nonnull %13) #18
  call void @llvm.lifetime.end.p0(i64 4, ptr nonnull %12) #18
  %48 = add nuw i64 %.02527, 1
  %49 = load i64, ptr %23, align 8, !tbaa !44
  %50 = icmp ult i64 %48, %49
  br i1 %50, label %27, label %._crit_edge, !llvm.loop !77
}